; Function Attrs: mustprogress nofree nounwind willreturn memory(write) uwtable
define noundef double @_ZN8QuantLib15Gaussian1dModel33gaussianShiftedPolynomialIntegralEdddddddd(double noundef %a, double noundef %b, double noundef %c, double noundef %d, double noundef %e, double noundef %h, double noundef %x0, double noundef %x1) local_unnamed_addr #12 align 2 {
entry:
  %mul = fmul double %a, -4.000000e+00
  %0 = tail call double @llvm.fmuladd.f64(double %mul, double %h, double %b)
  %mul2 = fmul double %a, 6.000000e+00
  %mul3 = fmul double %mul2, %h
  %mul5 = fmul double %b, 3.000000e+00
  %mul6 = fmul double %mul5, %h
  %neg = fneg double %mul6
  %1 = tail call double @llvm.fmuladd.f64(double %mul3, double %h, double %neg)
  %add = fadd double %c, %1
  %mul8 = fmul double %mul, %h
  %mul9 = fmul double %h, %mul8
  %mul13 = fmul double %h, %mul6
  %2 = tail call double @llvm.fmuladd.f64(double %mul9, double %h, double %mul13)
  %neg16 = fmul double %c, -2.000000e+00
  %3 = tail call double @llvm.fmuladd.f64(double %neg16, double %h, double %2)
  %add17 = fadd double %d, %3
  %mul18 = fmul double %a, %h
  %mul19 = fmul double %h, %mul18
  %mul20 = fmul double %h, %mul19
  %mul22 = fmul double %b, %h
  %mul23 = fmul double %h, %mul22
  %4 = fneg double %h
  %neg25 = fmul double %mul23, %4
  %5 = tail call double @llvm.fmuladd.f64(double %mul20, double %h, double %neg25)
  %mul26 = fmul double %c, %h
  %6 = tail call double @llvm.fmuladd.f64(double %mul26, double %h, double %5)
  %neg29 = fneg double %d
  %7 = tail call double @llvm.fmuladd.f64(double %neg29, double %h, double %6)
  %add30 = fadd double %e, %7
  %mul.i = fmul double %a, 4.000000e+00
  %mul1.i = fmul double %0, 0x4006A09E667F3BCD
  %mul2.i = fmul double %add, 2.000000e+00
  %mul3.i = fmul double %add17, 0x3FF6A09E667F3BCD
  %mul4.i = fmul double %x0, 0x3FE6A09E667F3BCD
  %mul5.i = fmul double %x1, 0x3FE6A09E667F3BCD
  %mul7.i = fmul double %mul2.i, 2.000000e+00
  %8 = tail call double @llvm.fmuladd.f64(double %mul.i, double 3.000000e+00, double %mul7.i)
  %9 = tail call double @llvm.fmuladd.f64(double %add30, double 4.000000e+00, double %8)
  %mul9.i = fmul double %9, 1.250000e-01
  %call.i = tail call double @erf(double noundef %mul5.i) #29, !tbaa !184
  %fneg.i = fneg double %mul5.i
  %mul11.i = fmul double %mul5.i, %fneg.i
  %call12.i = tail call double @exp(double noundef %mul11.i) #29, !tbaa !184
  %mul13.i = fmul double %call12.i, 0x3FC20DD750429B6D
  %mul14.i = fmul double %mul.i, 2.000000e+00
  %mul15.i = fmul double %mul14.i, %mul5.i
  %mul16.i = fmul double %mul5.i, %mul15.i
  %mul18.i = fmul double %mul.i, 3.000000e+00
  %mul19.i = fmul double %mul18.i, %mul5.i
  %10 = tail call double @llvm.fmuladd.f64(double %mul16.i, double %mul5.i, double %mul19.i)
  %mul20.i = fmul double %mul1.i, 2.000000e+00
  %11 = tail call double @llvm.fmuladd.f64(double %mul5.i, double %mul5.i, double 1.000000e+00)
  %12 = tail call double @llvm.fmuladd.f64(double %mul20.i, double %11, double %10)
  %13 = tail call double @llvm.fmuladd.f64(double %mul7.i, double %mul5.i, double %12)
  %14 = tail call double @llvm.fmuladd.f64(double %mul3.i, double 2.000000e+00, double %13)
  %15 = fneg double %14
  %neg.i = fmul double %mul13.i, %15
  %16 = tail call double @llvm.fmuladd.f64(double %mul9.i, double %call.i, double %neg.i)
  %call31.i = tail call double @erf(double noundef %mul4.i) #29, !tbaa !184
  %fneg33.i = fneg double %mul4.i
  %mul34.i = fmul double %mul4.i, %fneg33.i
  %call35.i = tail call double @exp(double noundef %mul34.i) #29, !tbaa !184
  %mul36.i = fmul double %call35.i, 0x3FC20DD750429B6D
  %mul38.i = fmul double %mul14.i, %mul4.i
  %mul39.i = fmul double %mul4.i, %mul38.i
  %mul42.i = fmul double %mul18.i, %mul4.i
  %17 = tail call double @llvm.fmuladd.f64(double %mul39.i, double %mul4.i, double %mul42.i)
  %18 = tail call double @llvm.fmuladd.f64(double %mul4.i, double %mul4.i, double 1.000000e+00)
  %19 = tail call double @llvm.fmuladd.f64(double %mul20.i, double %18, double %17)
  %20 = tail call double @llvm.fmuladd.f64(double %mul7.i, double %mul4.i, double %19)
  %21 = tail call double @llvm.fmuladd.f64(double %mul3.i, double 2.000000e+00, double %20)
  %22 = fneg double %21
  %neg50.i = fmul double %mul36.i, %22
  %23 = tail call double @llvm.fmuladd.f64(double %mul9.i, double %call31.i, double %neg50.i)
  %sub.i = fsub double %16, %23
  ret double %sub.i
}